; ModuleID = '2/1255.c'
source_filename = "2/1255.c"
target datalayout = "e-m:e-p270:32:32-p271:32:32-p272:64:64-i64:64-f80:128-n8:16:32:64-S128"
target triple = "x86_64-pc-linux-gnu"

%struct.book = type { [4 x i8], [27 x i8] }

@.str = private unnamed_addr constant [3 x i8] c"%d\00", align 1
@.str.1 = private unnamed_addr constant [5 x i8] c"%s%s\00", align 1
@book = common dso_local global [100 x %struct.book] zeroinitializer, align 16
@.str.2 = private unnamed_addr constant [7 x i8] c"%c\0A%d\0A\00", align 1
@.str.3 = private unnamed_addr constant [4 x i8] c"%s\0A\00", align 1

; Function Attrs: noinline nounwind uwtable
define dso_local i32 @main() #0 {
  %1 = alloca i32, align 4
  %2 = alloca i32, align 4
  %3 = alloca i32, align 4
  %4 = alloca i32, align 4
  %5 = alloca [26 x i32], align 16
  %6 = alloca i32, align 4
  %7 = alloca i32, align 4
  %8 = alloca i32, align 4
  store i32 0, i32* %1, align 4
  %9 = call i32 (i8*, ...) @__isoc99_scanf(i8* getelementptr inbounds ([3 x i8], [3 x i8]* @.str, i64 0, i64 0), i32* %2)
  store i32 0, i32* %7, align 4
  store i32 0, i32* %3, align 4
  br label %10

10:                                               ; preds = %17, %0
  %11 = load i32, i32* %3, align 4
  %12 = icmp slt i32 %11, 26
  br i1 %12, label %13, label %20

13:                                               ; preds = %10
  %14 = load i32, i32* %3, align 4
  %15 = sext i32 %14 to i64
  %16 = getelementptr inbounds [26 x i32], [26 x i32]* %5, i64 0, i64 %15
  store i32 0, i32* %16, align 4
  br label %17

17:                                               ; preds = %13
  %18 = load i32, i32* %3, align 4
  %19 = add nsw i32 %18, 1
  store i32 %19, i32* %3, align 4
  br label %10

20:                                               ; preds = %10
  store i32 0, i32* %3, align 4
  br label %21

21:                                               ; preds = %67, %20
  %22 = load i32, i32* %3, align 4
  %23 = load i32, i32* %2, align 4
  %24 = icmp slt i32 %22, %23
  br i1 %24, label %25, label %70

25:                                               ; preds = %21
  %26 = load i32, i32* %3, align 4
  %27 = sext i32 %26 to i64
  %28 = getelementptr inbounds [100 x %struct.book], [100 x %struct.book]* @book, i64 0, i64 %27
  %29 = getelementptr inbounds %struct.book, %struct.book* %28, i32 0, i32 0
  %30 = getelementptr inbounds [4 x i8], [4 x i8]* %29, i64 0, i64 0
  %31 = load i32, i32* %3, align 4
  %32 = sext i32 %31 to i64
  %33 = getelementptr inbounds [100 x %struct.book], [100 x %struct.book]* @book, i64 0, i64 %32
  %34 = getelementptr inbounds %struct.book, %struct.book* %33, i32 0, i32 1
  %35 = getelementptr inbounds [27 x i8], [27 x i8]* %34, i64 0, i64 0
  %36 = call i32 (i8*, ...) @__isoc99_scanf(i8* getelementptr inbounds ([5 x i8], [5 x i8]* @.str.1, i64 0, i64 0), i8* %30, i8* %35)
  %37 = load i32, i32* %3, align 4
  %38 = sext i32 %37 to i64
  %39 = getelementptr inbounds [100 x %struct.book], [100 x %struct.book]* @book, i64 0, i64 %38
  %40 = getelementptr inbounds %struct.book, %struct.book* %39, i32 0, i32 1
  %41 = getelementptr inbounds [27 x i8], [27 x i8]* %40, i64 0, i64 0
  %42 = call i64 @strlen(i8* %41) #3
  %43 = trunc i64 %42 to i32
  store i32 %43, i32* %6, align 4
  store i32 0, i32* %4, align 4
  br label %44

44:                                               ; preds = %63, %25
  %45 = load i32, i32* %4, align 4
  %46 = load i32, i32* %6, align 4
  %47 = icmp slt i32 %45, %46
  br i1 %47, label %48, label %66

48:                                               ; preds = %44
  %49 = load i32, i32* %3, align 4
  %50 = sext i32 %49 to i64
  %51 = getelementptr inbounds [100 x %struct.book], [100 x %struct.book]* @book, i64 0, i64 %50
  %52 = getelementptr inbounds %struct.book, %struct.book* %51, i32 0, i32 1
  %53 = load i32, i32* %4, align 4
  %54 = sext i32 %53 to i64
  %55 = getelementptr inbounds [27 x i8], [27 x i8]* %52, i64 0, i64 %54
  %56 = load i8, i8* %55, align 1
  %57 = sext i8 %56 to i32
  %58 = sub nsw i32 %57, 65
  %59 = sext i32 %58 to i64
  %60 = getelementptr inbounds [26 x i32], [26 x i32]* %5, i64 0, i64 %59
  %61 = load i32, i32* %60, align 4
  %62 = add nsw i32 %61, 1
  store i32 %62, i32* %60, align 4
  br label %63

63:                                               ; preds = %48
  %64 = load i32, i32* %4, align 4
  %65 = add nsw i32 %64, 1
  store i32 %65, i32* %4, align 4
  br label %44

66:                                               ; preds = %44
  br label %67

67:                                               ; preds = %66
  %68 = load i32, i32* %3, align 4
  %69 = add nsw i32 %68, 1
  store i32 %69, i32* %3, align 4
  br label %21

70:                                               ; preds = %21
  store i32 0, i32* %3, align 4
  br label %71

71:                                               ; preds = %88, %70
  %72 = load i32, i32* %3, align 4
  %73 = icmp slt i32 %72, 26
  br i1 %73, label %74, label %91

74:                                               ; preds = %71
  %75 = load i32, i32* %3, align 4
  %76 = sext i32 %75 to i64
  %77 = getelementptr inbounds [26 x i32], [26 x i32]* %5, i64 0, i64 %76
  %78 = load i32, i32* %77, align 4
  %79 = load i32, i32* %7, align 4
  %80 = icmp sgt i32 %78, %79
  br i1 %80, label %81, label %87

81:                                               ; preds = %74
  %82 = load i32, i32* %3, align 4
  %83 = sext i32 %82 to i64
  %84 = getelementptr inbounds [26 x i32], [26 x i32]* %5, i64 0, i64 %83
  %85 = load i32, i32* %84, align 4
  store i32 %85, i32* %7, align 4
  %86 = load i32, i32* %3, align 4
  store i32 %86, i32* %8, align 4
  br label %87

87:                                               ; preds = %81, %74
  br label %88

88:                                               ; preds = %87
  %89 = load i32, i32* %3, align 4
  %90 = add nsw i32 %89, 1
  store i32 %90, i32* %3, align 4
  br label %71

91:                                               ; preds = %71
  %92 = load i32, i32* %8, align 4
  %93 = add nsw i32 %92, 65
  %94 = load i32, i32* %7, align 4
  %95 = call i32 (i8*, ...) @printf(i8* getelementptr inbounds ([7 x i8], [7 x i8]* @.str.2, i64 0, i64 0), i32 %93, i32 %94)
  store i32 0, i32* %3, align 4
  br label %96

96:                                               ; preds = %137, %91
  %97 = load i32, i32* %3, align 4
  %98 = load i32, i32* %2, align 4
  %99 = icmp slt i32 %97, %98
  br i1 %99, label %100, label %140

100:                                              ; preds = %96
  %101 = load i32, i32* %3, align 4
  %102 = sext i32 %101 to i64
  %103 = getelementptr inbounds [100 x %struct.book], [100 x %struct.book]* @book, i64 0, i64 %102
  %104 = getelementptr inbounds %struct.book, %struct.book* %103, i32 0, i32 1
  %105 = getelementptr inbounds [27 x i8], [27 x i8]* %104, i64 0, i64 0
  %106 = call i64 @strlen(i8* %105) #3
  %107 = trunc i64 %106 to i32
  store i32 %107, i32* %6, align 4
  store i32 0, i32* %4, align 4
  br label %108

108:                                              ; preds = %133, %100
  %109 = load i32, i32* %4, align 4
  %110 = load i32, i32* %6, align 4
  %111 = icmp slt i32 %109, %110
  br i1 %111, label %112, label %136

112:                                              ; preds = %108
  %113 = load i32, i32* %3, align 4
  %114 = sext i32 %113 to i64
  %115 = getelementptr inbounds [100 x %struct.book], [100 x %struct.book]* @book, i64 0, i64 %114
  %116 = getelementptr inbounds %struct.book, %struct.book* %115, i32 0, i32 1
  %117 = load i32, i32* %4, align 4
  %118 = sext i32 %117 to i64
  %119 = getelementptr inbounds [27 x i8], [27 x i8]* %116, i64 0, i64 %118
  %120 = load i8, i8* %119, align 1
  %121 = sext i8 %120 to i32
  %122 = load i32, i32* %8, align 4
  %123 = add nsw i32 %122, 65
  %124 = icmp eq i32 %121, %123
  br i1 %124, label %125, label %132

125:                                              ; preds = %112
  %126 = load i32, i32* %3, align 4
  %127 = sext i32 %126 to i64
  %128 = getelementptr inbounds [100 x %struct.book], [100 x %struct.book]* @book, i64 0, i64 %127
  %129 = getelementptr inbounds %struct.book, %struct.book* %128, i32 0, i32 0
  %130 = getelementptr inbounds [4 x i8], [4 x i8]* %129, i64 0, i64 0
  %131 = call i32 (i8*, ...) @printf(i8* getelementptr inbounds ([4 x i8], [4 x i8]* @.str.3, i64 0, i64 0), i8* %130)
  br label %132

132:                                              ; preds = %125, %112
  br label %133

133:                                              ; preds = %132
  %134 = load i32, i32* %4, align 4
  %135 = add nsw i32 %134, 1
  store i32 %135, i32* %4, align 4
  br label %108

136:                                              ; preds = %108
  br label %137

137:                                              ; preds = %136
  %138 = load i32, i32* %3, align 4
  %139 = add nsw i32 %138, 1
  store i32 %139, i32* %3, align 4
  br label %96

140:                                              ; preds = %96
  ret i32 0
}

declare dso_local i32 @__isoc99_scanf(i8*, ...) #1

; Function Attrs: nounwind readonly
declare dso_local i64 @strlen(i8*) #2

declare dso_local i32 @printf(i8*, ...) #1


!llvm.module.flags = !{!0}
!llvm.ident = !{!1}

!0 = !{i32 1, !"wchar_size", i32 4}
!1 = !{!"clang version 10.0.0-4ubuntu1 "}
